target datalayout = "e-m:e-p270:32:32-p271:32:32-p272:64:64-i64:64-i128:128-f80:128-n8:16:32:64-S128"
target triple = "x86_64-pc-linux-gnu"

%struct.PlannerInfo = type { i32, ptr, ptr, i32, ptr, ptr, ptr, ptr, i32, ptr, ptr, ptr, ptr, ptr, ptr, ptr, ptr, i32, ptr, ptr, ptr, ptr, ptr, i8, ptr, ptr, ptr, ptr, ptr, i32, ptr, ptr, ptr, ptr, ptr, ptr, ptr, i32, ptr, ptr, ptr, i32, ptr, ptr, ptr, ptr, ptr, ptr, [8 x ptr], [8 x ptr], ptr, ptr, ptr, ptr, ptr, ptr, ptr, double, double, double, i32, i8, i8, i8, i8, i8, i8, i8, i32, ptr, ptr, i32, i8, i8, i32, ptr, ptr, ptr, ptr, ptr, ptr, i8, ptr }
%struct.RelOptInfo = type { i32, i32, ptr, double, i8, i8, i8, ptr, ptr, ptr, ptr, ptr, ptr, ptr, ptr, ptr, ptr, i32, i32, i32, i16, i16, ptr, ptr, ptr, ptr, ptr, ptr, ptr, ptr, i32, double, double, ptr, ptr, ptr, i32, i32, i32, i32, i8, ptr, ptr, ptr, ptr, ptr, %struct.QualCost, i32, ptr, i8, i8, ptr, ptr, ptr, ptr, i32, ptr, i8, ptr, ptr, ptr, ptr, ptr, ptr }
%struct.QualCost = type { double, double }
%struct.RangeTblEntry = type { i32, ptr, ptr, i32, i32, i8, i8, i32, i32, ptr, ptr, i8, i32, i32, ptr, ptr, ptr, ptr, ptr, i8, ptr, ptr, ptr, i32, i8, ptr, ptr, ptr, ptr, double, ptr, i8, i8, ptr }
%struct.TableSampleClause = type { i32, i32, ptr, ptr }
%struct.TsmRoutine = type { i32, ptr, i8, i8, ptr, ptr, ptr, ptr, ptr, ptr }

; Function Attrs: nounwind uwtable
define internal void @set_tablesample_rel_pathlist(ptr noundef %0, ptr noundef %1, ptr noundef %2) #0 {
  %4 = alloca ptr, align 8
  %5 = alloca ptr, align 8
  %6 = alloca ptr, align 8
  %7 = alloca ptr, align 8
  %8 = alloca ptr, align 8
  store ptr %0, ptr %4, align 8
  store ptr %1, ptr %5, align 8
  store ptr %2, ptr %6, align 8
  call void @llvm.lifetime.start.p0(i64 8, ptr %7) #8
  call void @llvm.lifetime.start.p0(i64 8, ptr %8) #8
  %9 = load ptr, ptr %5, align 8
  %10 = getelementptr inbounds nuw %struct.RelOptInfo, ptr %9, i32 0, i32 16
  %11 = load ptr, ptr %10, align 8
  store ptr %11, ptr %7, align 8
  %12 = load ptr, ptr %4, align 8
  %13 = load ptr, ptr %5, align 8
  %14 = load ptr, ptr %7, align 8
  %15 = call ptr @create_samplescan_path(ptr noundef %12, ptr noundef %13, ptr noundef %14)
  store ptr %15, ptr %8, align 8
  %16 = load ptr, ptr %4, align 8
  %17 = getelementptr inbounds nuw %struct.PlannerInfo, ptr %16, i32 0, i32 3
  %18 = load i32, ptr %17, align 8
  %19 = icmp ugt i32 %18, 1
  br i1 %19, label %26, label %20

20:                                               ; preds = %3
  %21 = load ptr, ptr %4, align 8
  %22 = getelementptr inbounds nuw %struct.PlannerInfo, ptr %21, i32 0, i32 13
  %23 = load ptr, ptr %22, align 8
  %24 = call i32 @bms_membership(ptr noundef %23)
  %25 = icmp ne i32 %24, 1
  br i1 %25, label %26, label %40

26:                                               ; preds = %20, %3
  %27 = load ptr, ptr %6, align 8
  %28 = getelementptr inbounds nuw %struct.RangeTblEntry, ptr %27, i32 0, i32 9
  %29 = load ptr, ptr %28, align 8
  %30 = getelementptr inbounds nuw %struct.TableSampleClause, ptr %29, i32 0, i32 1
  %31 = load i32, ptr %30, align 4
  %32 = call ptr @GetTsmRoutine(i32 noundef %31)
  %33 = getelementptr inbounds nuw %struct.TsmRoutine, ptr %32, i32 0, i32 3
  %34 = load i8, ptr %33, align 1, !range !7, !noundef !8
  %35 = trunc i8 %34 to i1
  br i1 %35, label %40, label %36

36:                                               ; preds = %26
  %37 = load ptr, ptr %5, align 8
  %38 = load ptr, ptr %8, align 8
  %39 = call ptr @create_material_path(ptr noundef %37, ptr noundef %38)
  store ptr %39, ptr %8, align 8
  br label %40

40:                                               ; preds = %36, %26, %20
  %41 = load ptr, ptr %5, align 8
  %42 = load ptr, ptr %8, align 8
  call void @add_path(ptr noundef %41, ptr noundef %42)
  call void @llvm.lifetime.end.p0(i64 8, ptr %8) #8
  call void @llvm.lifetime.end.p0(i64 8, ptr %7) #8
  ret void
}