; Function Attrs: nounwind uwtable
define internal fastcc void @set_tablesample_rel_pathlist(ptr noundef %0, ptr noundef %1, ptr noundef readonly captures(none) %2) unnamed_addr #0 {
  %4 = getelementptr inbounds nuw i8, ptr %1, i64 104
  %5 = load ptr, ptr %4, align 8
  %6 = tail call ptr @create_samplescan_path(ptr noundef %0, ptr noundef %1, ptr noundef %5) #9
  %7 = getelementptr inbounds nuw i8, ptr %0, i64 24
  %8 = load i32, ptr %7, align 8
  %9 = icmp ugt i32 %8, 1
  br i1 %9, label %14, label %10

10:                                               ; preds = %3
  %11 = getelementptr inbounds nuw i8, ptr %0, i64 104
  %12 = load ptr, ptr %11, align 8
  %13 = tail call i32 @bms_membership(ptr noundef %12) #9
  %.not = icmp eq i32 %13, 1
  br i1 %.not, label %25, label %14

14:                                               ; preds = %10, %3
  %15 = getelementptr inbounds nuw i8, ptr %2, i64 48
  %16 = load ptr, ptr %15, align 8
  %17 = getelementptr inbounds nuw i8, ptr %16, i64 4
  %18 = load i32, ptr %17, align 4
  %19 = tail call ptr @GetTsmRoutine(i32 noundef %18) #9
  %20 = getelementptr inbounds nuw i8, ptr %19, i64 17
  %21 = load i8, ptr %20, align 1, !range !4, !noundef !5
  %22 = trunc nuw i8 %21 to i1
  br i1 %22, label %25, label %23

23:                                               ; preds = %14
  %24 = tail call ptr @create_material_path(ptr noundef nonnull %1, ptr noundef %6) #9
  br label %25

25:                                               ; preds = %23, %14, %10
  %.0 = phi ptr [ %6, %14 ], [ %24, %23 ], [ %6, %10 ]
  tail call void @add_path(ptr noundef nonnull %1, ptr noundef %.0) #9
  ret void
}